; Function Attrs: mustprogress uwtable
define void @_ZN6icu_7724DateTimePatternGenerator17setDateTimeFormatE16UDateFormatStyleRKNS_13UnicodeStringER10UErrorCode(ptr noundef nonnull align 8 dereferenceable(4796) %0, i32 noundef %1, ptr noundef nonnull align 8 dereferenceable(64) %2, ptr noundef nonnull align 4 captures(none) dereferenceable(4) %3) local_unnamed_addr #1 align 2 {
  %5 = load i32, ptr %3, align 4, !tbaa !13
  %6 = icmp slt i32 %5, 1
  br i1 %6, label %7, label %15

7:                                                ; preds = %4
  %or.cond = icmp ugt i32 %1, 3
  br i1 %or.cond, label %8, label %9

8:                                                ; preds = %7
  store i32 1, ptr %3, align 4, !tbaa !13
  br label %15

9:                                                ; preds = %7
  %10 = getelementptr inbounds nuw i8, ptr %0, i64 4360
  %11 = zext nneg i32 %1 to i64
  %12 = getelementptr inbounds nuw [4 x %"class.icu_77::UnicodeString"], ptr %10, i64 0, i64 %11
  %13 = tail call noundef nonnull align 8 dereferenceable(64) ptr @_ZN6icu_7713UnicodeStringaSERKS0_(ptr noundef nonnull align 8 dereferenceable(64) %12, ptr noundef nonnull align 8 dereferenceable(64) %2)
  %14 = tail call noundef ptr @_ZN6icu_7713UnicodeString19getTerminatedBufferEv(ptr noundef nonnull align 8 dereferenceable(64) %12)
  br label %15

15:                                               ; preds = %4, %9, %8
  ret void
}